target datalayout = "e-m:e-p270:32:32-p271:32:32-p272:64:64-i64:64-i128:128-f80:128-n8:16:32:64-S128"
target triple = "x86_64-unknown-linux-gnu"

%"class.std::__cxx11::basic_string" = type { %"struct.std::__cxx11::basic_string<char>::_Alloc_hider", i64, %union.anon }
%"struct.std::__cxx11::basic_string<char>::_Alloc_hider" = type { ptr }
%union.anon = type { i64, [8 x i8] }
%"class.base::Histogram" = type <{ %"class.base::HistogramBase.base", [4 x i8], ptr, i32, i32, %"class.std::unique_ptr.24", %"class.std::unique_ptr.32", i8, [7 x i8] }>
%"class.base::HistogramBase.base" = type <{ ptr, %"class.std::__cxx11::basic_string", i32 }>
%"class.std::unique_ptr.24" = type { %"struct.std::__uniq_ptr_data.25" }
%"struct.std::__uniq_ptr_data.25" = type { %"class.std::__uniq_ptr_impl.26" }
%"class.std::__uniq_ptr_impl.26" = type { %"class.std::tuple.27" }
%"class.std::tuple.27" = type { %"struct.std::_Tuple_impl.28" }
%"struct.std::_Tuple_impl.28" = type { %"struct.std::_Head_base.31" }
%"struct.std::_Head_base.31" = type { ptr }
%"class.std::unique_ptr.32" = type { %"struct.std::__uniq_ptr_data.33" }
%"struct.std::__uniq_ptr_data.33" = type { %"class.std::__uniq_ptr_impl.34" }
%"class.std::__uniq_ptr_impl.34" = type { %"class.std::tuple.35" }
%"class.std::tuple.35" = type { %"struct.std::_Tuple_impl.36" }
%"struct.std::_Tuple_impl.36" = type { %"struct.std::_Head_base.39" }
%"struct.std::_Head_base.39" = type { ptr }

; Function Attrs: mustprogress uwtable
define dso_local noundef zeroext i1 @_ZNK4base9Histogram24HasConstructionArgumentsEiij(ptr noundef nonnull align 8 dereferenceable(81) %this, i32 noundef %expected_minimum, i32 noundef %expected_maximum, i32 noundef %expected_bucket_count) unnamed_addr #0 align 2 {
entry:
  %this.addr = alloca ptr, align 8
  %expected_minimum.addr = alloca i32, align 4
  %expected_maximum.addr = alloca i32, align 4
  %expected_bucket_count.addr = alloca i32, align 4
  store ptr %this, ptr %this.addr, align 8
  store i32 %expected_minimum, ptr %expected_minimum.addr, align 4
  store i32 %expected_maximum, ptr %expected_maximum.addr, align 4
  store i32 %expected_bucket_count, ptr %expected_bucket_count.addr, align 4
  %this1 = load ptr, ptr %this.addr, align 8
  %0 = load i32, ptr %expected_minimum.addr, align 4
  %declared_min_ = getelementptr inbounds %"class.base::Histogram", ptr %this1, i32 0, i32 3
  %1 = load i32, ptr %declared_min_, align 8
  %cmp = icmp eq i32 %0, %1
  br i1 %cmp, label %land.lhs.true, label %land.end

land.lhs.true:                                    ; preds = %entry
  %2 = load i32, ptr %expected_maximum.addr, align 4
  %declared_max_ = getelementptr inbounds %"class.base::Histogram", ptr %this1, i32 0, i32 4
  %3 = load i32, ptr %declared_max_, align 4
  %cmp2 = icmp eq i32 %2, %3
  br i1 %cmp2, label %land.rhs, label %land.end

land.rhs:                                         ; preds = %land.lhs.true
  %4 = load i32, ptr %expected_bucket_count.addr, align 4
  %vtable = load ptr, ptr %this1, align 8
  %vfn = getelementptr inbounds ptr, ptr %vtable, i64 19
  %5 = load ptr, ptr %vfn, align 8
  %call = call noundef i32 %5(ptr noundef nonnull align 8 dereferenceable(81) %this1)
  %cmp3 = icmp eq i32 %4, %call
  br label %land.end

land.end:                                         ; preds = %land.rhs, %land.lhs.true, %entry
  %6 = phi i1 [ false, %land.lhs.true ], [ false, %entry ], [ %cmp3, %land.rhs ]
  ret i1 %6
}