; Function Attrs: mustprogress uwtable
define dso_local noundef zeroext i1 @_ZNK4base9Histogram24HasConstructionArgumentsEiij(ptr noundef nonnull align 8 dereferenceable(81) %this, i32 noundef %expected_minimum, i32 noundef %expected_maximum, i32 noundef %expected_bucket_count) unnamed_addr #0 align 2 {
entry:
  %declared_min_ = getelementptr inbounds i8, ptr %this, i64 56
  %0 = load i32, ptr %declared_min_, align 8
  %cmp = icmp eq i32 %0, %expected_minimum
  %declared_max_ = getelementptr inbounds i8, ptr %this, i64 60
  %1 = load i32, ptr %declared_max_, align 4
  %cmp2 = icmp eq i32 %1, %expected_maximum
  %or.cond = select i1 %cmp, i1 %cmp2, i1 false
  br i1 %or.cond, label %land.rhs, label %land.end

land.rhs:                                         ; preds = %entry
  %vtable = load ptr, ptr %this, align 8
  %vfn = getelementptr inbounds i8, ptr %vtable, i64 152
  %2 = load ptr, ptr %vfn, align 8
  %call = tail call noundef i32 %2(ptr noundef nonnull align 8 dereferenceable(81) %this)
  %cmp3 = icmp eq i32 %call, %expected_bucket_count
  br label %land.end

land.end:                                         ; preds = %land.rhs, %entry
  %3 = phi i1 [ false, %entry ], [ %cmp3, %land.rhs ]
  ret i1 %3
}